; ModuleID = '7/275.c'
source_filename = "7/275.c"
target datalayout = "e-m:e-p270:32:32-p271:32:32-p272:64:64-i64:64-f80:128-n8:16:32:64-S128"
target triple = "x86_64-pc-linux-gnu"

@.str = private unnamed_addr constant [7 x i8] c"%s%s%s\00", align 1
@.str.1 = private unnamed_addr constant [3 x i8] c"%s\00", align 1
@.str.2 = private unnamed_addr constant [3 x i8] c"%c\00", align 1

; Function Attrs: noinline nounwind uwtable
define dso_local i32 @main() #0 {
  %1 = alloca i32, align 4
  %2 = alloca [300 x i8], align 16
  %3 = alloca [300 x i8], align 16
  %4 = alloca [300 x i8], align 16
  %5 = alloca i32, align 4
  %6 = alloca i32, align 4
  %7 = alloca i32, align 4
  %8 = alloca i32, align 4
  %9 = alloca i32, align 4
  %10 = alloca i32, align 4
  %11 = alloca i32, align 4
  store i32 0, i32* %1, align 4
  %12 = getelementptr inbounds [300 x i8], [300 x i8]* %2, i64 0, i64 0
  %13 = getelementptr inbounds [300 x i8], [300 x i8]* %3, i64 0, i64 0
  %14 = getelementptr inbounds [300 x i8], [300 x i8]* %4, i64 0, i64 0
  %15 = call i32 (i8*, ...) @__isoc99_scanf(i8* getelementptr inbounds ([7 x i8], [7 x i8]* @.str, i64 0, i64 0), i8* %12, i8* %13, i8* %14)
  %16 = getelementptr inbounds [300 x i8], [300 x i8]* %2, i64 0, i64 0
  %17 = call i64 @strlen(i8* %16) #3
  %18 = trunc i64 %17 to i32
  store i32 %18, i32* %9, align 4
  %19 = getelementptr inbounds [300 x i8], [300 x i8]* %3, i64 0, i64 0
  %20 = call i64 @strlen(i8* %19) #3
  %21 = trunc i64 %20 to i32
  store i32 %21, i32* %10, align 4
  %22 = getelementptr inbounds [300 x i8], [300 x i8]* %4, i64 0, i64 0
  %23 = call i64 @strlen(i8* %22) #3
  %24 = trunc i64 %23 to i32
  store i32 %24, i32* %11, align 4
  store i32 0, i32* %8, align 4
  store i32 0, i32* %5, align 4
  br label %25

25:                                               ; preds = %72, %0
  %26 = load i32, i32* %5, align 4
  %27 = load i32, i32* %9, align 4
  %28 = icmp slt i32 %26, %27
  br i1 %28, label %29, label %75

29:                                               ; preds = %25
  %30 = load i32, i32* %5, align 4
  %31 = sext i32 %30 to i64
  %32 = getelementptr inbounds [300 x i8], [300 x i8]* %2, i64 0, i64 %31
  %33 = load i8, i8* %32, align 1
  %34 = sext i8 %33 to i32
  %35 = getelementptr inbounds [300 x i8], [300 x i8]* %3, i64 0, i64 0
  %36 = load i8, i8* %35, align 16
  %37 = sext i8 %36 to i32
  %38 = icmp eq i32 %34, %37
  br i1 %38, label %39, label %65

39:                                               ; preds = %29
  %40 = load i32, i32* %5, align 4
  store i32 %40, i32* %7, align 4
  store i32 0, i32* %6, align 4
  br label %41

41:                                               ; preds = %59, %39
  %42 = load i32, i32* %6, align 4
  %43 = load i32, i32* %10, align 4
  %44 = icmp slt i32 %42, %43
  br i1 %44, label %45, label %64

45:                                               ; preds = %41
  %46 = load i32, i32* %7, align 4
  %47 = sext i32 %46 to i64
  %48 = getelementptr inbounds [300 x i8], [300 x i8]* %2, i64 0, i64 %47
  %49 = load i8, i8* %48, align 1
  %50 = sext i8 %49 to i32
  %51 = load i32, i32* %6, align 4
  %52 = sext i32 %51 to i64
  %53 = getelementptr inbounds [300 x i8], [300 x i8]* %3, i64 0, i64 %52
  %54 = load i8, i8* %53, align 1
  %55 = sext i8 %54 to i32
  %56 = icmp ne i32 %50, %55
  br i1 %56, label %57, label %58

57:                                               ; preds = %45
  br label %64

58:                                               ; preds = %45
  br label %59

59:                                               ; preds = %58
  %60 = load i32, i32* %6, align 4
  %61 = add nsw i32 %60, 1
  store i32 %61, i32* %6, align 4
  %62 = load i32, i32* %7, align 4
  %63 = add nsw i32 %62, 1
  store i32 %63, i32* %7, align 4
  br label %41

64:                                               ; preds = %57, %41
  br label %65

65:                                               ; preds = %64, %29
  %66 = load i32, i32* %6, align 4
  %67 = load i32, i32* %10, align 4
  %68 = icmp eq i32 %66, %67
  br i1 %68, label %69, label %71

69:                                               ; preds = %65
  %70 = load i32, i32* %5, align 4
  store i32 %70, i32* %8, align 4
  br label %75

71:                                               ; preds = %65
  br label %72

72:                                               ; preds = %71
  %73 = load i32, i32* %5, align 4
  %74 = add nsw i32 %73, 1
  store i32 %74, i32* %5, align 4
  br label %25

75:                                               ; preds = %69, %25
  %76 = load i32, i32* %6, align 4
  %77 = load i32, i32* %10, align 4
  %78 = icmp ne i32 %76, %77
  br i1 %78, label %79, label %82

79:                                               ; preds = %75
  %80 = getelementptr inbounds [300 x i8], [300 x i8]* %2, i64 0, i64 0
  %81 = call i32 (i8*, ...) @printf(i8* getelementptr inbounds ([3 x i8], [3 x i8]* @.str.1, i64 0, i64 0), i8* %80)
  br label %118

82:                                               ; preds = %75
  store i32 0, i32* %5, align 4
  br label %83

83:                                               ; preds = %94, %82
  %84 = load i32, i32* %5, align 4
  %85 = load i32, i32* %8, align 4
  %86 = icmp slt i32 %84, %85
  br i1 %86, label %87, label %97

87:                                               ; preds = %83
  %88 = load i32, i32* %5, align 4
  %89 = sext i32 %88 to i64
  %90 = getelementptr inbounds [300 x i8], [300 x i8]* %2, i64 0, i64 %89
  %91 = load i8, i8* %90, align 1
  %92 = sext i8 %91 to i32
  %93 = call i32 (i8*, ...) @printf(i8* getelementptr inbounds ([3 x i8], [3 x i8]* @.str.2, i64 0, i64 0), i32 %92)
  br label %94

94:                                               ; preds = %87
  %95 = load i32, i32* %5, align 4
  %96 = add nsw i32 %95, 1
  store i32 %96, i32* %5, align 4
  br label %83

97:                                               ; preds = %83
  %98 = getelementptr inbounds [300 x i8], [300 x i8]* %4, i64 0, i64 0
  %99 = call i32 (i8*, ...) @printf(i8* getelementptr inbounds ([3 x i8], [3 x i8]* @.str.1, i64 0, i64 0), i8* %98)
  %100 = load i32, i32* %8, align 4
  %101 = load i32, i32* %11, align 4
  %102 = add nsw i32 %100, %101
  store i32 %102, i32* %5, align 4
  br label %103

103:                                              ; preds = %114, %97
  %104 = load i32, i32* %5, align 4
  %105 = load i32, i32* %9, align 4
  %106 = icmp slt i32 %104, %105
  br i1 %106, label %107, label %117

107:                                              ; preds = %103
  %108 = load i32, i32* %5, align 4
  %109 = sext i32 %108 to i64
  %110 = getelementptr inbounds [300 x i8], [300 x i8]* %2, i64 0, i64 %109
  %111 = load i8, i8* %110, align 1
  %112 = sext i8 %111 to i32
  %113 = call i32 (i8*, ...) @printf(i8* getelementptr inbounds ([3 x i8], [3 x i8]* @.str.2, i64 0, i64 0), i32 %112)
  br label %114

114:                                              ; preds = %107
  %115 = load i32, i32* %5, align 4
  %116 = add nsw i32 %115, 1
  store i32 %116, i32* %5, align 4
  br label %103

117:                                              ; preds = %103
  br label %118

118:                                              ; preds = %117, %79
  ret i32 0
}

declare dso_local i32 @__isoc99_scanf(i8*, ...) #1

; Function Attrs: nounwind readonly
declare dso_local i64 @strlen(i8*) #2

declare dso_local i32 @printf(i8*, ...) #1


!llvm.module.flags = !{!0}
!llvm.ident = !{!1}

!0 = !{i32 1, !"wchar_size", i32 4}
!1 = !{!"clang version 10.0.0-4ubuntu1 "}
